; Function Attrs: nounwind uwtable
define noalias nonnull ptr @l_Lean_throwError___at___private_Lean_Elab_PatternVar_0__Lean_Elab_Term_CollectPatternVars_throwInvalidPattern___spec__1(ptr noundef readnone captures(none) %0) local_unnamed_addr #0 {
  tail call void @lean_inc_heartbeat() #6
  %2 = tail call noalias ptr @mi_malloc_small(i64 noundef 24) #6
  %3 = icmp eq ptr %2, null
  br i1 %3, label %4, label %lean_alloc_closure.exit

4:                                                ; preds = %1
  tail call void @lean_internal_panic_out_of_memory() #7
  unreachable

lean_alloc_closure.exit:                          ; preds = %1
  %5 = getelementptr inbounds nuw i8, ptr %2, i64 4
  store i32 1, ptr %2, align 4, !tbaa !8
  store i32 -184549352, ptr %5, align 4
  %6 = getelementptr inbounds nuw i8, ptr %2, i64 8
  store ptr @l_Lean_throwError___at___private_Lean_Elab_PatternVar_0__Lean_Elab_Term_CollectPatternVars_throwInvalidPattern___spec__1___rarg___boxed, ptr %6, align 8, !tbaa !11
  %7 = getelementptr inbounds nuw i8, ptr %2, i64 16
  store i16 9, ptr %7, align 8, !tbaa !16
  %8 = getelementptr inbounds nuw i8, ptr %2, i64 18
  store i16 0, ptr %8, align 2, !tbaa !16
  ret ptr %2
}